target datalayout = "e-m:e-p270:32:32-p271:32:32-p272:64:64-i64:64-i128:128-f80:128-n8:16:32:64-S128"
target triple = "x86_64-unknown-linux-gnu"

%struct.QemuMutex = type { %union.pthread_mutex_t, i8 }
%union.pthread_mutex_t = type { %struct.__pthread_mutex_s }
%struct.__pthread_mutex_s = type { i32, i32, i32, i32, i32, i16, i16, %struct.__pthread_internal_list }
%struct.__pthread_internal_list = type { ptr, ptr }
%struct.QTailQLink = type { ptr, ptr }
%struct.CoQueue = type { %struct.anon.8 }
%struct.anon.8 = type { ptr, ptr }
%struct.MirrorBlockJob = type { %struct.BlockJob, ptr, ptr, ptr, ptr, ptr, ptr, ptr, i8, i32, i8, i32, i32, i32, i8, i8, i64, i64, i64, ptr, ptr, ptr, ptr, %struct.anon.14, i32, i64, ptr, i32, i64, %union.anon.15, i32, i8, i32, i32, i8, i32, i64, i8, i8 }
%struct.BlockJob = type { %struct.Job, i32, i64, %struct.RateLimit, ptr, %struct.Notifier, %struct.Notifier, %struct.Notifier, %struct.Notifier, %struct.Notifier, ptr }
%struct.Job = type { ptr, ptr, ptr, i8, i8, ptr, ptr, %struct.ProgressMeter, ptr, i32, i32, %struct.QEMUTimer, i32, i8, i8, i8, i8, i8, i8, i32, ptr, %struct.NotifierList, %struct.NotifierList, %struct.NotifierList, %struct.NotifierList, %struct.NotifierList, %struct.anon.11, ptr, %struct.anon.12 }
%struct.ProgressMeter = type { i64, i64, %struct.QemuMutex }
%struct.QEMUTimer = type { i64, ptr, ptr, ptr, ptr, i32, i32 }
%struct.NotifierList = type { %struct.anon.10 }
%struct.anon.10 = type { ptr }
%struct.anon.11 = type { ptr, ptr }
%struct.anon.12 = type { ptr, ptr }
%struct.RateLimit = type { %struct.QemuMutex, i64, i64, i64, i64, i64 }
%struct.Notifier = type { ptr, %struct.anon.13 }
%struct.anon.13 = type { ptr, ptr }
%struct.anon.14 = type { ptr, ptr }
%union.anon.15 = type { %struct.QTailQLink }
%struct.QEMUIOVector = type { ptr, i32, %union.anon.18 }
%union.anon.18 = type { %struct.anon.19 }
%struct.anon.19 = type { i32, %struct.iovec }
%struct.iovec = type { ptr, i64 }
%struct.MirrorOp = type { ptr, %struct.QEMUIOVector, i64, i64, ptr, i8, i8, i8, %struct.CoQueue, ptr, ptr, %union.anon.21 }
%union.anon.21 = type { %struct.QTailQLink }

@.str.15 = private unnamed_addr constant [102 x i8] c"/home/dtcxzyw/WorkSpace/Projects/compilers/llvm-opt-benchmark/bench/qemu/qemu/include/qemu/lockable.h\00", align 1
@__func__.qemu_null_lockable = private unnamed_addr constant [19 x i8] c"qemu_null_lockable\00", align 1

; Function Attrs: nounwind sspstrong uwtable
define internal void @mirror_wait_for_free_in_flight_slot(ptr noundef %s) #0 {
entry:
  %x.addr.i = alloca ptr, align 8
  %s.addr = alloca ptr, align 8
  %op = alloca ptr, align 8
  store ptr %s, ptr %s.addr, align 8
  %0 = load ptr, ptr %s.addr, align 8
  %ops_in_flight = getelementptr inbounds %struct.MirrorBlockJob, ptr %0, i32 0, i32 29
  %1 = load ptr, ptr %ops_in_flight, align 8
  store ptr %1, ptr %op, align 8
  br label %for.cond

for.cond:                                         ; preds = %for.inc, %entry
  %2 = load ptr, ptr %op, align 8
  %tobool = icmp ne ptr %2, null
  br i1 %tobool, label %for.body, label %for.end

for.body:                                         ; preds = %for.cond
  %3 = load ptr, ptr %op, align 8
  %is_pseudo_op = getelementptr inbounds %struct.MirrorOp, ptr %3, i32 0, i32 5
  %4 = load i8, ptr %is_pseudo_op, align 8
  %tobool1 = trunc i8 %4 to i1
  br i1 %tobool1, label %if.end, label %land.lhs.true

land.lhs.true:                                    ; preds = %for.body
  %5 = load ptr, ptr %op, align 8
  %is_in_flight = getelementptr inbounds %struct.MirrorOp, ptr %5, i32 0, i32 7
  %6 = load i8, ptr %is_in_flight, align 2
  %tobool2 = trunc i8 %6 to i1
  br i1 %tobool2, label %land.lhs.true3, label %if.end

land.lhs.true3:                                   ; preds = %land.lhs.true
  %7 = load ptr, ptr %op, align 8
  %is_active_write = getelementptr inbounds %struct.MirrorOp, ptr %7, i32 0, i32 6
  %8 = load i8, ptr %is_active_write, align 1
  %tobool4 = trunc i8 %8 to i1
  br i1 %tobool4, label %if.end, label %if.then

if.then:                                          ; preds = %land.lhs.true3
  %9 = load ptr, ptr %op, align 8
  %waiting_requests = getelementptr inbounds %struct.MirrorOp, ptr %9, i32 0, i32 8
  store ptr null, ptr %x.addr.i, align 8
  %10 = load ptr, ptr %x.addr.i, align 8
  %cmp.i = icmp ne ptr %10, null
  br i1 %cmp.i, label %if.then.i, label %qemu_null_lockable.exit

if.then.i:                                        ; preds = %if.then
  call void @g_assertion_message_expr(ptr noundef null, ptr noundef @.str.15, i32 noundef 41, ptr noundef @__func__.qemu_null_lockable, ptr noundef null) #9
  unreachable

qemu_null_lockable.exit:                          ; preds = %if.then
  call void @qemu_co_queue_wait_impl(ptr noundef %waiting_requests, ptr noundef null, i32 noundef 0)
  ret void

if.end:                                           ; preds = %land.lhs.true3, %land.lhs.true, %for.body
  br label %for.inc

for.inc:                                          ; preds = %if.end
  %11 = load ptr, ptr %op, align 8
  %next = getelementptr inbounds %struct.MirrorOp, ptr %11, i32 0, i32 11
  %12 = load ptr, ptr %next, align 8
  store ptr %12, ptr %op, align 8
  br label %for.cond, !llvm.loop !17

for.end:                                          ; preds = %for.cond
  call void @abort() #9
  unreachable
}

; Function Attrs: nounwind sspstrong uwtable
define internal void @mirror_wait_for_all_io(ptr noundef %s) #0 {
entry:
  %s.addr = alloca ptr, align 8
  store ptr %s, ptr %s.addr, align 8
  br label %while.cond

while.cond:                                       ; preds = %while.body, %entry
  %0 = load ptr, ptr %s.addr, align 8
  %in_flight = getelementptr inbounds %struct.MirrorBlockJob, ptr %0, i32 0, i32 27
  %1 = load i32, ptr %in_flight, align 8
  %cmp = icmp ugt i32 %1, 0
  br i1 %cmp, label %while.body, label %while.end

while.body:                                       ; preds = %while.cond
  %2 = load ptr, ptr %s.addr, align 8
  call void @mirror_wait_for_free_in_flight_slot(ptr noundef %2)
  br label %while.cond, !llvm.loop !23

while.end:                                        ; preds = %while.cond
  ret void
}