; Function Attrs: nounwind sspstrong uwtable
define internal void @mirror_wait_for_all_io(ptr noundef readonly captures(none) %s) #0 {
entry:
  %in_flight = getelementptr inbounds nuw i8, ptr %s, i64 704
  %0 = load i32, ptr %in_flight, align 8
  %cmp.not4 = icmp eq i32 %0, 0
  br i1 %cmp.not4, label %while.end, label %while.body.lr.ph

while.body.lr.ph:                                 ; preds = %entry
  %ops_in_flight.i = getelementptr inbounds nuw i8, ptr %s, i64 720
  br label %while.body

while.body:                                       ; preds = %while.body.lr.ph, %mirror_wait_for_free_in_flight_slot.exit
  %op.07.i = load ptr, ptr %ops_in_flight.i, align 8
  %tobool.not8.i = icmp eq ptr %op.07.i, null
  br i1 %tobool.not8.i, label %for.end.i, label %for.body.i

for.body.i:                                       ; preds = %while.body, %for.inc.i
  %op.09.i = phi ptr [ %op.0.i, %for.inc.i ], [ %op.07.i, %while.body ]
  %is_pseudo_op.i = getelementptr inbounds nuw i8, ptr %op.09.i, i64 72
  %1 = load i8, ptr %is_pseudo_op.i, align 8
  %tobool1.i = trunc i8 %1 to i1
  br i1 %tobool1.i, label %for.inc.i, label %land.lhs.true.i

land.lhs.true.i:                                  ; preds = %for.body.i
  %is_in_flight.i = getelementptr inbounds nuw i8, ptr %op.09.i, i64 74
  %2 = load i8, ptr %is_in_flight.i, align 2
  %tobool2.i = trunc i8 %2 to i1
  br i1 %tobool2.i, label %land.lhs.true3.i, label %for.inc.i

land.lhs.true3.i:                                 ; preds = %land.lhs.true.i
  %is_active_write.i = getelementptr inbounds nuw i8, ptr %op.09.i, i64 73
  %3 = load i8, ptr %is_active_write.i, align 1
  %tobool4.i = trunc i8 %3 to i1
  br i1 %tobool4.i, label %for.inc.i, label %mirror_wait_for_free_in_flight_slot.exit

for.inc.i:                                        ; preds = %land.lhs.true3.i, %land.lhs.true.i, %for.body.i
  %next.i = getelementptr inbounds nuw i8, ptr %op.09.i, i64 112
  %op.0.i = load ptr, ptr %next.i, align 8
  %tobool.not.i = icmp eq ptr %op.0.i, null
  br i1 %tobool.not.i, label %for.end.i, label %for.body.i, !llvm.loop !11

for.end.i:                                        ; preds = %while.body, %for.inc.i
  tail call void @abort() #13
  unreachable

mirror_wait_for_free_in_flight_slot.exit:         ; preds = %land.lhs.true3.i
  %waiting_requests.i = getelementptr inbounds nuw i8, ptr %op.09.i, i64 80
  tail call void @qemu_co_queue_wait_impl(ptr noundef nonnull %waiting_requests.i, ptr noundef null, i32 noundef 0) #12
  %4 = load i32, ptr %in_flight, align 8
  %cmp.not = icmp eq i32 %4, 0
  br i1 %cmp.not, label %while.end, label %while.body, !llvm.loop !12

while.end:                                        ; preds = %mirror_wait_for_free_in_flight_slot.exit, %entry
  ret void
}